; ModuleID = 'source-C-CXX/26/2029.c'
source_filename = "source-C-CXX/26/2029.c"
target datalayout = "e-m:e-p270:32:32-p271:32:32-p272:64:64-i64:64-f80:128-n8:16:32:64-S128"
target triple = "x86_64-pc-linux-gnu"

%struct._IO_FILE = type { i32, i8*, i8*, i8*, i8*, i8*, i8*, i8*, i8*, i8*, i8*, i8*, %struct._IO_marker*, %struct._IO_FILE*, i32, i32, i64, i16, i8, [1 x i8], i8*, i64, %struct._IO_codecvt*, %struct._IO_wide_data*, %struct._IO_FILE*, i8*, i64, i32, [20 x i8] }
%struct._IO_marker = type opaque
%struct._IO_codecvt = type opaque
%struct._IO_wide_data = type opaque

@.str = private unnamed_addr constant [3 x i8] c"%d\00", align 1
@.str.1 = private unnamed_addr constant [12 x i8] c"%lf %lf %lf\00", align 1
@.str.2 = private unnamed_addr constant [20 x i8] c"x1=0.00000;x2=%.5f\0A\00", align 1
@.str.3 = private unnamed_addr constant [17 x i8] c"x1=%.5f;x2=%.5f\0A\00", align 1
@.str.4 = private unnamed_addr constant [12 x i8] c"x1=x2=%.5f\0A\00", align 1
@.str.5 = private unnamed_addr constant [29 x i8] c"x1=%.5f+%.5fi;x2=%.5f-%.5fi\0A\00", align 1
@stdin = external local_unnamed_addr global %struct._IO_FILE*, align 8

; Function Attrs: nofree nounwind sspstrong uwtable
define dso_local i32 @main() local_unnamed_addr #0 {
  %1 = alloca i32, align 4
  %2 = alloca double, align 8
  %3 = alloca double, align 8
  %4 = alloca double, align 8
  %5 = bitcast i32* %1 to i8*
  call void @llvm.lifetime.start.p0i8(i64 4, i8* nonnull %5) #4
  %6 = bitcast double* %2 to i8*
  call void @llvm.lifetime.start.p0i8(i64 8, i8* nonnull %6) #4
  %7 = bitcast double* %3 to i8*
  call void @llvm.lifetime.start.p0i8(i64 8, i8* nonnull %7) #4
  %8 = bitcast double* %4 to i8*
  call void @llvm.lifetime.start.p0i8(i64 8, i8* nonnull %8) #4
  %9 = call i32 (i8*, ...) @__isoc99_scanf(i8* getelementptr inbounds ([3 x i8], [3 x i8]* @.str, i64 0, i64 0), i32* nonnull %1)
  %10 = load i32, i32* %1, align 4, !tbaa !5
  %11 = icmp slt i32 %10, 1
  br i1 %11, label %67, label %12

12:                                               ; preds = %0, %63
  %13 = phi i32 [ %64, %63 ], [ 1, %0 ]
  %14 = call i32 (i8*, ...) @__isoc99_scanf(i8* getelementptr inbounds ([12 x i8], [12 x i8]* @.str.1, i64 0, i64 0), double* nonnull %2, double* nonnull %3, double* nonnull %4)
  %15 = load double, double* %3, align 8, !tbaa !9
  %16 = fmul double %15, %15
  %17 = load double, double* %2, align 8, !tbaa !9
  %18 = fmul double %17, 4.000000e+00
  %19 = load double, double* %4, align 8, !tbaa !9
  %20 = fmul double %18, %19
  %21 = fsub double %16, %20
  %22 = fcmp ogt double %21, 0.000000e+00
  br i1 %22, label %23, label %42

23:                                               ; preds = %12
  %24 = call double @sqrt(double %21) #4
  %25 = load double, double* %2, align 8, !tbaa !9
  %26 = load double, double* %3, align 8, !tbaa !9
  %27 = fneg double %26
  %28 = call double @sqrt(double %21) #4
  %29 = fsub double %27, %28
  %30 = load double, double* %2, align 8, !tbaa !9
  %31 = fmul double %30, 2.000000e+00
  %32 = fdiv double %29, %31
  %33 = load double, double* %4, align 8, !tbaa !9
  %34 = fcmp oeq double %33, 0.000000e+00
  br i1 %34, label %35, label %37

35:                                               ; preds = %23
  %36 = call i32 (i8*, ...) @printf(i8* nonnull dereferenceable(1) getelementptr inbounds ([20 x i8], [20 x i8]* @.str.2, i64 0, i64 0), double %32)
  br label %63

37:                                               ; preds = %23
  %38 = fsub double %24, %15
  %39 = fmul double %25, 2.000000e+00
  %40 = fdiv double %38, %39
  %41 = call i32 (i8*, ...) @printf(i8* nonnull dereferenceable(1) getelementptr inbounds ([17 x i8], [17 x i8]* @.str.3, i64 0, i64 0), double %40, double %32)
  br label %63

42:                                               ; preds = %12
  %43 = fcmp oeq double %21, 0.000000e+00
  br i1 %43, label %44, label %49

44:                                               ; preds = %42
  %45 = fneg double %15
  %46 = fmul double %17, 2.000000e+00
  %47 = fdiv double %45, %46
  %48 = call i32 (i8*, ...) @printf(i8* nonnull dereferenceable(1) getelementptr inbounds ([12 x i8], [12 x i8]* @.str.4, i64 0, i64 0), double %47)
  br label %63

49:                                               ; preds = %42
  %50 = fneg double %21
  %51 = call double @sqrt(double %50) #4
  %52 = load double, double* %2, align 8, !tbaa !9
  %53 = fmul double %52, 2.000000e+00
  %54 = fdiv double %51, %53
  %55 = load double, double* %3, align 8, !tbaa !9
  %56 = fcmp oeq double %55, 0.000000e+00
  br i1 %56, label %57, label %59

57:                                               ; preds = %49
  %58 = call i32 (i8*, ...) @printf(i8* nonnull dereferenceable(1) getelementptr inbounds ([29 x i8], [29 x i8]* @.str.5, i64 0, i64 0), double 0.000000e+00, double %54, double 0.000000e+00, double %54)
  br label %63

59:                                               ; preds = %49
  %60 = fneg double %55
  %61 = fdiv double %60, %53
  %62 = call i32 (i8*, ...) @printf(i8* nonnull dereferenceable(1) getelementptr inbounds ([29 x i8], [29 x i8]* @.str.5, i64 0, i64 0), double %61, double %54, double %61, double %54)
  br label %63

63:                                               ; preds = %37, %35, %57, %59, %44
  %64 = add nuw nsw i32 %13, 1
  %65 = load i32, i32* %1, align 4, !tbaa !5
  %66 = icmp slt i32 %13, %65
  br i1 %66, label %12, label %67, !llvm.loop !11

67:                                               ; preds = %63, %0
  %68 = load %struct._IO_FILE*, %struct._IO_FILE** @stdin, align 8, !tbaa !13
  %69 = call i32 @getc(%struct._IO_FILE* %68) #4
  %70 = load %struct._IO_FILE*, %struct._IO_FILE** @stdin, align 8, !tbaa !13
  %71 = call i32 @getc(%struct._IO_FILE* %70) #4
  %72 = load %struct._IO_FILE*, %struct._IO_FILE** @stdin, align 8, !tbaa !13
  %73 = call i32 @getc(%struct._IO_FILE* %72) #4
  call void @llvm.lifetime.end.p0i8(i64 8, i8* nonnull %8) #4
  call void @llvm.lifetime.end.p0i8(i64 8, i8* nonnull %7) #4
  call void @llvm.lifetime.end.p0i8(i64 8, i8* nonnull %6) #4
  call void @llvm.lifetime.end.p0i8(i64 4, i8* nonnull %5) #4
  ret i32 0
}

; Function Attrs: argmemonly mustprogress nofree nosync nounwind willreturn
declare void @llvm.lifetime.start.p0i8(i64 immarg, i8* nocapture) #1

; Function Attrs: nofree nounwind
declare noundef i32 @__isoc99_scanf(i8* nocapture noundef readonly, ...) local_unnamed_addr #2

; Function Attrs: mustprogress nofree nounwind willreturn
declare double @sqrt(double) local_unnamed_addr #3

; Function Attrs: nofree nounwind
declare noundef i32 @printf(i8* nocapture noundef readonly, ...) local_unnamed_addr #2

; Function Attrs: argmemonly mustprogress nofree nosync nounwind willreturn
declare void @llvm.lifetime.end.p0i8(i64 immarg, i8* nocapture) #1

; Function Attrs: nofree nounwind
declare noundef i32 @getc(%struct._IO_FILE* nocapture noundef) local_unnamed_addr #2


!llvm.module.flags = !{!0, !1, !2, !3}
!llvm.ident = !{!4}

!0 = !{i32 1, !"wchar_size", i32 4}
!1 = !{i32 7, !"PIC Level", i32 2}
!2 = !{i32 7, !"PIE Level", i32 2}
!3 = !{i32 7, !"uwtable", i32 1}
!4 = !{!"clang version 13.0.0"}
!5 = !{!6, !6, i64 0}
!6 = !{!"int", !7, i64 0}
!7 = !{!"omnipotent char", !8, i64 0}
!8 = !{!"Simple C/C++ TBAA"}
!9 = !{!10, !10, i64 0}
!10 = !{!"double", !7, i64 0}
!11 = distinct !{!11, !12}
!12 = !{!"llvm.loop.mustprogress"}
!13 = !{!14, !14, i64 0}
!14 = !{!"any pointer", !7, i64 0}
